target datalayout = "e-m:e-p270:32:32-p271:32:32-p272:64:64-i64:64-i128:128-f80:128-n8:16:32:64-S128"
target triple = "x86_64-pc-linux-gnu"

%struct.OS_Seed = type { i32 }

@.str = private unnamed_addr constant [13 x i8] c"/dev/urandom\00", align 1
@.str.1 = private unnamed_addr constant [12 x i8] c"/dev/random\00", align 1

; Function Attrs: nounwind uwtable
define i32 @wc_GenerateSeed(ptr noundef %0, ptr noundef %1, i32 noundef %2) #0 {
  %4 = alloca i32, align 4
  %5 = alloca ptr, align 8
  %6 = alloca ptr, align 8
  %7 = alloca i32, align 4
  %8 = alloca i32, align 4
  %9 = alloca i32, align 4
  %10 = alloca i32, align 4
  store ptr %0, ptr %5, align 8, !tbaa !36
  store ptr %1, ptr %6, align 8, !tbaa !8
  store i32 %2, ptr %7, align 4, !tbaa !10
  call void @llvm.lifetime.start.p0(i64 4, ptr %8) #6
  store i32 0, ptr %8, align 4, !tbaa !10
  %11 = load ptr, ptr %5, align 8, !tbaa !36
  %12 = icmp eq ptr %11, null
  br i1 %12, label %13, label %14

13:                                               ; preds = %3
  store i32 -173, ptr %4, align 4
  store i32 1, ptr %9, align 4
  br label %69

14:                                               ; preds = %3
  %15 = call i32 (ptr, i32, ...) @open(ptr noundef @.str, i32 noundef 0)
  %16 = load ptr, ptr %5, align 8, !tbaa !36
  %17 = getelementptr inbounds nuw %struct.OS_Seed, ptr %16, i32 0, i32 0
  store i32 %15, ptr %17, align 4, !tbaa !38
  %18 = load ptr, ptr %5, align 8, !tbaa !36
  %19 = getelementptr inbounds nuw %struct.OS_Seed, ptr %18, i32 0, i32 0
  %20 = load i32, ptr %19, align 4, !tbaa !38
  %21 = icmp eq i32 %20, -1
  br i1 %21, label %22, label %32

22:                                               ; preds = %14
  %23 = call i32 (ptr, i32, ...) @open(ptr noundef @.str.1, i32 noundef 0)
  %24 = load ptr, ptr %5, align 8, !tbaa !36
  %25 = getelementptr inbounds nuw %struct.OS_Seed, ptr %24, i32 0, i32 0
  store i32 %23, ptr %25, align 4, !tbaa !38
  %26 = load ptr, ptr %5, align 8, !tbaa !36
  %27 = getelementptr inbounds nuw %struct.OS_Seed, ptr %26, i32 0, i32 0
  %28 = load i32, ptr %27, align 4, !tbaa !38
  %29 = icmp eq i32 %28, -1
  br i1 %29, label %30, label %31

30:                                               ; preds = %22
  store i32 -101, ptr %4, align 4
  store i32 1, ptr %9, align 4
  br label %69

31:                                               ; preds = %22
  br label %32

32:                                               ; preds = %31, %14
  br label %33

33:                                               ; preds = %62, %32
  %34 = load i32, ptr %7, align 4, !tbaa !10
  %35 = icmp ne i32 %34, 0
  br i1 %35, label %36, label %63

36:                                               ; preds = %33
  call void @llvm.lifetime.start.p0(i64 4, ptr %10) #6
  %37 = load ptr, ptr %5, align 8, !tbaa !36
  %38 = getelementptr inbounds nuw %struct.OS_Seed, ptr %37, i32 0, i32 0
  %39 = load i32, ptr %38, align 4, !tbaa !38
  %40 = load ptr, ptr %6, align 8, !tbaa !8
  %41 = load i32, ptr %7, align 4, !tbaa !10
  %42 = zext i32 %41 to i64
  %43 = call i64 @read(i32 noundef %39, ptr noundef %40, i64 noundef %42)
  %44 = trunc i64 %43 to i32
  store i32 %44, ptr %10, align 4, !tbaa !10
  %45 = load i32, ptr %10, align 4, !tbaa !10
  %46 = icmp eq i32 %45, -1
  br i1 %46, label %47, label %48

47:                                               ; preds = %36
  store i32 -102, ptr %8, align 4, !tbaa !10
  store i32 3, ptr %9, align 4
  br label %60

48:                                               ; preds = %36
  %49 = load i32, ptr %10, align 4, !tbaa !10
  %50 = load i32, ptr %7, align 4, !tbaa !10
  %51 = sub i32 %50, %49
  store i32 %51, ptr %7, align 4, !tbaa !10
  %52 = load i32, ptr %10, align 4, !tbaa !10
  %53 = load ptr, ptr %6, align 8, !tbaa !8
  %54 = sext i32 %52 to i64
  %55 = getelementptr inbounds i8, ptr %53, i64 %54
  store ptr %55, ptr %6, align 8, !tbaa !8
  %56 = load i32, ptr %7, align 4, !tbaa !10
  %57 = icmp ne i32 %56, 0
  br i1 %57, label %58, label %59

58:                                               ; preds = %48
  store i32 -105, ptr %8, align 4, !tbaa !10
  store i32 3, ptr %9, align 4
  br label %60

59:                                               ; preds = %48
  store i32 0, ptr %9, align 4
  br label %60

60:                                               ; preds = %59, %58, %47
  call void @llvm.lifetime.end.p0(i64 4, ptr %10) #6
  %61 = load i32, ptr %9, align 4
  switch i32 %61, label %71 [
    i32 0, label %62
    i32 3, label %63
  ]

62:                                               ; preds = %60
  br label %33, !llvm.loop !39

63:                                               ; preds = %60, %33
  %64 = load ptr, ptr %5, align 8, !tbaa !36
  %65 = getelementptr inbounds nuw %struct.OS_Seed, ptr %64, i32 0, i32 0
  %66 = load i32, ptr %65, align 4, !tbaa !38
  %67 = call i32 @close(i32 noundef %66)
  %68 = load i32, ptr %8, align 4, !tbaa !10
  store i32 %68, ptr %4, align 4
  store i32 1, ptr %9, align 4
  br label %69

69:                                               ; preds = %63, %30, %13
  call void @llvm.lifetime.end.p0(i64 4, ptr %8) #6
  %70 = load i32, ptr %4, align 4
  ret i32 %70

71:                                               ; preds = %60
  unreachable
}