; Function Attrs: nounwind uwtable
define range(i32 -173, 1) i32 @wc_GenerateSeed(ptr noundef captures(address_is_null) %0, ptr noundef captures(none) %1, i32 noundef %2) local_unnamed_addr #0 {
  %4 = icmp eq ptr %0, null
  br i1 %4, label %23, label %5

5:                                                ; preds = %3
  %6 = tail call i32 (ptr, i32, ...) @open(ptr noundef nonnull @.str, i32 noundef 0) #9
  store i32 %6, ptr %0, align 4, !tbaa !23
  %7 = icmp eq i32 %6, -1
  br i1 %7, label %8, label %.preheader

8:                                                ; preds = %5
  %9 = tail call i32 (ptr, i32, ...) @open(ptr noundef nonnull @.str.1, i32 noundef 0) #9
  store i32 %9, ptr %0, align 4, !tbaa !23
  %10 = icmp eq i32 %9, -1
  br i1 %10, label %23, label %.preheader

.preheader:                                       ; preds = %8, %5
  br label %11

11:                                               ; preds = %.preheader, %18
  %.022 = phi ptr [ %20, %18 ], [ %1, %.preheader ]
  %.020 = phi i32 [ 0, %18 ], [ %2, %.preheader ]
  %.not = icmp eq i32 %.020, 0
  br i1 %.not, label %.thread, label %12

12:                                               ; preds = %11
  %13 = load i32, ptr %0, align 4, !tbaa !23
  %14 = zext i32 %.020 to i64
  %15 = tail call i64 @read(i32 noundef %13, ptr noundef %.022, i64 noundef %14) #9
  %16 = trunc i64 %15 to i32
  %17 = icmp eq i32 %16, -1
  br i1 %17, label %.thread, label %18

18:                                               ; preds = %12
  %sext = shl i64 %15, 32
  %19 = ashr exact i64 %sext, 32
  %20 = getelementptr inbounds i8, ptr %.022, i64 %19
  %.not28 = icmp eq i32 %.020, %16
  br i1 %.not28, label %11, label %.thread

.thread:                                          ; preds = %18, %12, %11
  %.1 = phi i32 [ 0, %11 ], [ -105, %18 ], [ -102, %12 ]
  %21 = load i32, ptr %0, align 4, !tbaa !23
  %22 = tail call i32 @close(i32 noundef %21) #9
  br label %23

23:                                               ; preds = %8, %3, %.thread
  %.0 = phi i32 [ %.1, %.thread ], [ -173, %3 ], [ -101, %8 ]
  ret i32 %.0
}